target datalayout = "e-m:e-p270:32:32-p271:32:32-p272:64:64-i64:64-i128:128-f80:128-n8:16:32:64-S128"
target triple = "x86_64-pc-linux-gnu"

%"struct.cv::SparseMat::Hdr" = type { i32, i32, i32, i64, i64, i64, %"class.std::vector", %"class.std::vector.0", [32 x i32] }
%"class.std::vector" = type { %"struct.std::_Vector_base" }
%"struct.std::_Vector_base" = type { %"struct.std::_Vector_base<unsigned char, std::allocator<unsigned char>>::_Vector_impl" }
%"struct.std::_Vector_base<unsigned char, std::allocator<unsigned char>>::_Vector_impl" = type { %"struct.std::_Vector_base<unsigned char, std::allocator<unsigned char>>::_Vector_impl_data" }
%"struct.std::_Vector_base<unsigned char, std::allocator<unsigned char>>::_Vector_impl_data" = type { ptr, ptr, ptr }
%"class.std::vector.0" = type { %"struct.std::_Vector_base.1" }
%"struct.std::_Vector_base.1" = type { %"struct.std::_Vector_base<unsigned long, std::allocator<unsigned long>>::_Vector_impl" }
%"struct.std::_Vector_base<unsigned long, std::allocator<unsigned long>>::_Vector_impl" = type { %"struct.std::_Vector_base<unsigned long, std::allocator<unsigned long>>::_Vector_impl_data" }
%"struct.std::_Vector_base<unsigned long, std::allocator<unsigned long>>::_Vector_impl_data" = type { ptr, ptr, ptr }
%"class.cv::SparseMat" = type { i32, ptr }

; Function Attrs: mustprogress nounwind uwtable
define noundef i64 @_ZNK2cv9SparseMat4hashEPKi(ptr noundef nonnull align 8 dereferenceable(16) %0, ptr noundef %1) #1 align 2 {
  %3 = alloca i64, align 8
  %4 = alloca ptr, align 8
  %5 = alloca ptr, align 8
  %6 = alloca i64, align 8
  %7 = alloca i32, align 4
  %8 = alloca i32, align 4
  %9 = alloca i32, align 4
  store ptr %0, ptr %4, align 8, !tbaa !42
  store ptr %1, ptr %5, align 8, !tbaa !10
  %10 = load ptr, ptr %4, align 8
  call void @llvm.lifetime.start.p0(i64 8, ptr %6) #18
  %11 = load ptr, ptr %5, align 8, !tbaa !10
  %12 = getelementptr inbounds i32, ptr %11, i64 0
  %13 = load i32, ptr %12, align 4, !tbaa !8
  %14 = zext i32 %13 to i64
  store i64 %14, ptr %6, align 8, !tbaa !35
  %15 = getelementptr inbounds nuw %"class.cv::SparseMat", ptr %10, i32 0, i32 1
  %16 = load ptr, ptr %15, align 8, !tbaa !46
  %17 = icmp ne ptr %16, null
  br i1 %17, label %19, label %18

18:                                               ; preds = %2
  store i64 0, ptr %3, align 8
  store i32 1, ptr %7, align 4
  br label %44

19:                                               ; preds = %2
  call void @llvm.lifetime.start.p0(i64 4, ptr %8) #18
  %20 = getelementptr inbounds nuw %"class.cv::SparseMat", ptr %10, i32 0, i32 1
  %21 = load ptr, ptr %20, align 8, !tbaa !46
  %22 = getelementptr inbounds nuw %"struct.cv::SparseMat::Hdr", ptr %21, i32 0, i32 1
  %23 = load i32, ptr %22, align 4, !tbaa !25
  store i32 %23, ptr %8, align 4, !tbaa !8
  call void @llvm.lifetime.start.p0(i64 4, ptr %9) #18
  store i32 1, ptr %9, align 4, !tbaa !8
  br label %24

24:                                               ; preds = %39, %19
  %25 = load i32, ptr %9, align 4, !tbaa !8
  %26 = load i32, ptr %8, align 4, !tbaa !8
  %27 = icmp slt i32 %25, %26
  br i1 %27, label %29, label %28

28:                                               ; preds = %24
  store i32 2, ptr %7, align 4
  call void @llvm.lifetime.end.p0(i64 4, ptr %9) #18
  br label %42

29:                                               ; preds = %24
  %30 = load i64, ptr %6, align 8, !tbaa !35
  %31 = mul i64 %30, 1540483477
  %32 = load ptr, ptr %5, align 8, !tbaa !10
  %33 = load i32, ptr %9, align 4, !tbaa !8
  %34 = sext i32 %33 to i64
  %35 = getelementptr inbounds i32, ptr %32, i64 %34
  %36 = load i32, ptr %35, align 4, !tbaa !8
  %37 = zext i32 %36 to i64
  %38 = add i64 %31, %37
  store i64 %38, ptr %6, align 8, !tbaa !35
  br label %39

39:                                               ; preds = %29
  %40 = load i32, ptr %9, align 4, !tbaa !8
  %41 = add nsw i32 %40, 1
  store i32 %41, ptr %9, align 4, !tbaa !8
  br label %24, !llvm.loop !64

42:                                               ; preds = %28
  %43 = load i64, ptr %6, align 8, !tbaa !35
  store i64 %43, ptr %3, align 8
  store i32 1, ptr %7, align 4
  call void @llvm.lifetime.end.p0(i64 4, ptr %8) #18
  br label %44

44:                                               ; preds = %42, %18
  call void @llvm.lifetime.end.p0(i64 8, ptr %6) #18
  %45 = load i64, ptr %3, align 8
  ret i64 %45
}